target datalayout = "e-m:e-p270:32:32-p271:32:32-p272:64:64-i64:64-i128:128-f80:128-n8:16:32:64-S128"
target triple = "x86_64-pc-linux-gnu"

%"struct.url::Parsed" = type { %"struct.url::Component", %"struct.url::Component", %"struct.url::Component", %"struct.url::Component", %"struct.url::Component", %"struct.url::Component", %"struct.url::Component", %"struct.url::Component", ptr }
%"struct.url::Component" = type { i32, i32 }

@_ZN3url6ParsedC1ERKS0_ = unnamed_addr alias void (ptr, ptr), ptr @_ZN3url6ParsedC2ERKS0_
@_ZN3url6ParsedD1Ev = unnamed_addr alias void (ptr), ptr @_ZN3url6ParsedD2Ev

; Function Attrs: mustprogress nounwind uwtable
define linkonce_odr void @_ZN3url6Parsed18clear_inner_parsedEv(ptr noundef nonnull align 8 dereferenceable(72) %0) #1 comdat align 2 {
  %2 = alloca ptr, align 8
  store ptr %0, ptr %2, align 8, !tbaa !3
  %3 = load ptr, ptr %2, align 8
  %4 = getelementptr inbounds nuw %"struct.url::Parsed", ptr %3, i32 0, i32 8
  %5 = load ptr, ptr %4, align 8, !tbaa !8
  %6 = icmp ne ptr %5, null
  br i1 %6, label %7, label %14

7:                                                ; preds = %1
  %8 = getelementptr inbounds nuw %"struct.url::Parsed", ptr %3, i32 0, i32 8
  %9 = load ptr, ptr %8, align 8, !tbaa !8
  %10 = icmp eq ptr %9, null
  br i1 %10, label %12, label %11

11:                                               ; preds = %7
  call void @_ZN3url6ParsedD1Ev(ptr noundef nonnull align 8 dereferenceable(72) %9) #13
  call void @_ZdlPv(ptr noundef %9) #12
  br label %12

12:                                               ; preds = %11, %7
  %13 = getelementptr inbounds nuw %"struct.url::Parsed", ptr %3, i32 0, i32 8
  store ptr null, ptr %13, align 8, !tbaa !8
  br label %14

14:                                               ; preds = %12, %1
  ret void
}

; Function Attrs: mustprogress uwtable
define noundef nonnull align 8 dereferenceable(72) ptr @_ZN3url6ParsedaSERKS0_(ptr noundef nonnull align 8 dereferenceable(72) %0, ptr noundef nonnull align 8 dereferenceable(72) %1) #0 align 2 {
  %3 = alloca ptr, align 8
  %4 = alloca ptr, align 8
  store ptr %0, ptr %3, align 8, !tbaa !3
  store ptr %1, ptr %4, align 8, !tbaa !3
  %5 = load ptr, ptr %3, align 8
  %6 = load ptr, ptr %4, align 8, !tbaa !3
  %7 = icmp ne ptr %5, %6
  br i1 %7, label %8, label %43

8:                                                ; preds = %2
  %9 = load ptr, ptr %4, align 8, !tbaa !3
  %10 = getelementptr inbounds nuw %"struct.url::Parsed", ptr %9, i32 0, i32 0
  %11 = getelementptr inbounds nuw %"struct.url::Parsed", ptr %5, i32 0, i32 0
  call void @llvm.memcpy.p0.p0.i64(ptr align 8 %11, ptr align 8 %10, i64 8, i1 false), !tbaa.struct !16
  %12 = load ptr, ptr %4, align 8, !tbaa !3
  %13 = getelementptr inbounds nuw %"struct.url::Parsed", ptr %12, i32 0, i32 1
  %14 = getelementptr inbounds nuw %"struct.url::Parsed", ptr %5, i32 0, i32 1
  call void @llvm.memcpy.p0.p0.i64(ptr align 8 %14, ptr align 8 %13, i64 8, i1 false), !tbaa.struct !16
  %15 = load ptr, ptr %4, align 8, !tbaa !3
  %16 = getelementptr inbounds nuw %"struct.url::Parsed", ptr %15, i32 0, i32 2
  %17 = getelementptr inbounds nuw %"struct.url::Parsed", ptr %5, i32 0, i32 2
  call void @llvm.memcpy.p0.p0.i64(ptr align 8 %17, ptr align 8 %16, i64 8, i1 false), !tbaa.struct !16
  %18 = load ptr, ptr %4, align 8, !tbaa !3
  %19 = getelementptr inbounds nuw %"struct.url::Parsed", ptr %18, i32 0, i32 3
  %20 = getelementptr inbounds nuw %"struct.url::Parsed", ptr %5, i32 0, i32 3
  call void @llvm.memcpy.p0.p0.i64(ptr align 8 %20, ptr align 8 %19, i64 8, i1 false), !tbaa.struct !16
  %21 = load ptr, ptr %4, align 8, !tbaa !3
  %22 = getelementptr inbounds nuw %"struct.url::Parsed", ptr %21, i32 0, i32 4
  %23 = getelementptr inbounds nuw %"struct.url::Parsed", ptr %5, i32 0, i32 4
  call void @llvm.memcpy.p0.p0.i64(ptr align 8 %23, ptr align 8 %22, i64 8, i1 false), !tbaa.struct !16
  %24 = load ptr, ptr %4, align 8, !tbaa !3
  %25 = getelementptr inbounds nuw %"struct.url::Parsed", ptr %24, i32 0, i32 5
  %26 = getelementptr inbounds nuw %"struct.url::Parsed", ptr %5, i32 0, i32 5
  call void @llvm.memcpy.p0.p0.i64(ptr align 8 %26, ptr align 8 %25, i64 8, i1 false), !tbaa.struct !16
  %27 = load ptr, ptr %4, align 8, !tbaa !3
  %28 = getelementptr inbounds nuw %"struct.url::Parsed", ptr %27, i32 0, i32 6
  %29 = getelementptr inbounds nuw %"struct.url::Parsed", ptr %5, i32 0, i32 6
  call void @llvm.memcpy.p0.p0.i64(ptr align 8 %29, ptr align 8 %28, i64 8, i1 false), !tbaa.struct !16
  %30 = load ptr, ptr %4, align 8, !tbaa !3
  %31 = getelementptr inbounds nuw %"struct.url::Parsed", ptr %30, i32 0, i32 7
  %32 = getelementptr inbounds nuw %"struct.url::Parsed", ptr %5, i32 0, i32 7
  call void @llvm.memcpy.p0.p0.i64(ptr align 8 %32, ptr align 8 %31, i64 8, i1 false), !tbaa.struct !16
  %33 = load ptr, ptr %4, align 8, !tbaa !3
  %34 = getelementptr inbounds nuw %"struct.url::Parsed", ptr %33, i32 0, i32 8
  %35 = load ptr, ptr %34, align 8, !tbaa !8
  %36 = icmp ne ptr %35, null
  br i1 %36, label %37, label %41

37:                                               ; preds = %8
  %38 = load ptr, ptr %4, align 8, !tbaa !3
  %39 = getelementptr inbounds nuw %"struct.url::Parsed", ptr %38, i32 0, i32 8
  %40 = load ptr, ptr %39, align 8, !tbaa !8
  call void @_ZN3url6Parsed16set_inner_parsedERKS0_(ptr noundef nonnull align 8 dereferenceable(72) %5, ptr noundef nonnull align 8 dereferenceable(72) %40)
  br label %42

41:                                               ; preds = %8
  call void @_ZN3url6Parsed18clear_inner_parsedEv(ptr noundef nonnull align 8 dereferenceable(72) %5)
  br label %42

42:                                               ; preds = %41, %37
  br label %43

43:                                               ; preds = %42, %2
  ret ptr %5
}

; Function Attrs: mustprogress uwtable
define linkonce_odr void @_ZN3url6Parsed16set_inner_parsedERKS0_(ptr noundef nonnull align 8 dereferenceable(72) %0, ptr noundef nonnull align 8 dereferenceable(72) %1) #0 comdat align 2 personality ptr @__gxx_personality_v0 {
  %3 = alloca ptr, align 8
  %4 = alloca ptr, align 8
  %5 = alloca ptr, align 8
  %6 = alloca i32, align 4
  store ptr %0, ptr %3, align 8, !tbaa !3
  store ptr %1, ptr %4, align 8, !tbaa !3
  %7 = load ptr, ptr %3, align 8
  %8 = getelementptr inbounds nuw %"struct.url::Parsed", ptr %7, i32 0, i32 8
  %9 = load ptr, ptr %8, align 8, !tbaa !8
  %10 = icmp ne ptr %9, null
  br i1 %10, label %20, label %11

11:                                               ; preds = %2
  %12 = call noalias noundef nonnull ptr @_Znwm(i64 noundef 72) #11
  %13 = load ptr, ptr %4, align 8, !tbaa !3
  invoke void @_ZN3url6ParsedC1ERKS0_(ptr noundef nonnull align 8 dereferenceable(72) %12, ptr noundef nonnull align 8 dereferenceable(72) %13)
          to label %14 unwind label %16

14:                                               ; preds = %11
  %15 = getelementptr inbounds nuw %"struct.url::Parsed", ptr %7, i32 0, i32 8
  store ptr %12, ptr %15, align 8, !tbaa !8
  br label %25

16:                                               ; preds = %11
  %17 = landingpad { ptr, i32 }
          cleanup
  %18 = extractvalue { ptr, i32 } %17, 0
  store ptr %18, ptr %5, align 8
  %19 = extractvalue { ptr, i32 } %17, 1
  store i32 %19, ptr %6, align 4
  call void @_ZdlPv(ptr noundef %12) #12
  br label %26

20:                                               ; preds = %2
  %21 = load ptr, ptr %4, align 8, !tbaa !3
  %22 = getelementptr inbounds nuw %"struct.url::Parsed", ptr %7, i32 0, i32 8
  %23 = load ptr, ptr %22, align 8, !tbaa !8
  %24 = call noundef nonnull align 8 dereferenceable(72) ptr @_ZN3url6ParsedaSERKS0_(ptr noundef nonnull align 8 dereferenceable(72) %23, ptr noundef nonnull align 8 dereferenceable(72) %21)
  br label %25

25:                                               ; preds = %20, %14
  ret void

26:                                               ; preds = %16
  %27 = load ptr, ptr %5, align 8
  %28 = load i32, ptr %6, align 4
  %29 = insertvalue { ptr, i32 } poison, ptr %27, 0
  %30 = insertvalue { ptr, i32 } %29, i32 %28, 1
  resume { ptr, i32 } %30
}

; Function Attrs: mustprogress uwtable
define void @_ZN3url6ParsedC2ERKS0_(ptr noundef nonnull align 8 dereferenceable(72) %0, ptr noundef nonnull align 8 dereferenceable(72) %1) unnamed_addr #0 align 2 {
  %3 = alloca ptr, align 8
  %4 = alloca ptr, align 8
  store ptr %0, ptr %3, align 8, !tbaa !3
  store ptr %1, ptr %4, align 8, !tbaa !3
  %5 = load ptr, ptr %3, align 8
  %6 = getelementptr inbounds nuw %"struct.url::Parsed", ptr %5, i32 0, i32 0
  %7 = load ptr, ptr %4, align 8, !tbaa !3
  %8 = getelementptr inbounds nuw %"struct.url::Parsed", ptr %7, i32 0, i32 0
  call void @llvm.memcpy.p0.p0.i64(ptr align 8 %6, ptr align 8 %8, i64 8, i1 false), !tbaa.struct !16
  %9 = getelementptr inbounds nuw %"struct.url::Parsed", ptr %5, i32 0, i32 1
  %10 = load ptr, ptr %4, align 8, !tbaa !3
  %11 = getelementptr inbounds nuw %"struct.url::Parsed", ptr %10, i32 0, i32 1
  call void @llvm.memcpy.p0.p0.i64(ptr align 8 %9, ptr align 8 %11, i64 8, i1 false), !tbaa.struct !16
  %12 = getelementptr inbounds nuw %"struct.url::Parsed", ptr %5, i32 0, i32 2
  %13 = load ptr, ptr %4, align 8, !tbaa !3
  %14 = getelementptr inbounds nuw %"struct.url::Parsed", ptr %13, i32 0, i32 2
  call void @llvm.memcpy.p0.p0.i64(ptr align 8 %12, ptr align 8 %14, i64 8, i1 false), !tbaa.struct !16
  %15 = getelementptr inbounds nuw %"struct.url::Parsed", ptr %5, i32 0, i32 3
  %16 = load ptr, ptr %4, align 8, !tbaa !3
  %17 = getelementptr inbounds nuw %"struct.url::Parsed", ptr %16, i32 0, i32 3
  call void @llvm.memcpy.p0.p0.i64(ptr align 8 %15, ptr align 8 %17, i64 8, i1 false), !tbaa.struct !16
  %18 = getelementptr inbounds nuw %"struct.url::Parsed", ptr %5, i32 0, i32 4
  %19 = load ptr, ptr %4, align 8, !tbaa !3
  %20 = getelementptr inbounds nuw %"struct.url::Parsed", ptr %19, i32 0, i32 4
  call void @llvm.memcpy.p0.p0.i64(ptr align 8 %18, ptr align 8 %20, i64 8, i1 false), !tbaa.struct !16
  %21 = getelementptr inbounds nuw %"struct.url::Parsed", ptr %5, i32 0, i32 5
  %22 = load ptr, ptr %4, align 8, !tbaa !3
  %23 = getelementptr inbounds nuw %"struct.url::Parsed", ptr %22, i32 0, i32 5
  call void @llvm.memcpy.p0.p0.i64(ptr align 8 %21, ptr align 8 %23, i64 8, i1 false), !tbaa.struct !16
  %24 = getelementptr inbounds nuw %"struct.url::Parsed", ptr %5, i32 0, i32 6
  %25 = load ptr, ptr %4, align 8, !tbaa !3
  %26 = getelementptr inbounds nuw %"struct.url::Parsed", ptr %25, i32 0, i32 6
  call void @llvm.memcpy.p0.p0.i64(ptr align 8 %24, ptr align 8 %26, i64 8, i1 false), !tbaa.struct !16
  %27 = getelementptr inbounds nuw %"struct.url::Parsed", ptr %5, i32 0, i32 7
  %28 = load ptr, ptr %4, align 8, !tbaa !3
  %29 = getelementptr inbounds nuw %"struct.url::Parsed", ptr %28, i32 0, i32 7
  call void @llvm.memcpy.p0.p0.i64(ptr align 8 %27, ptr align 8 %29, i64 8, i1 false), !tbaa.struct !16
  %30 = getelementptr inbounds nuw %"struct.url::Parsed", ptr %5, i32 0, i32 8
  store ptr null, ptr %30, align 8, !tbaa !8
  %31 = load ptr, ptr %4, align 8, !tbaa !3
  %32 = getelementptr inbounds nuw %"struct.url::Parsed", ptr %31, i32 0, i32 8
  %33 = load ptr, ptr %32, align 8, !tbaa !8
  %34 = icmp ne ptr %33, null
  br i1 %34, label %35, label %39

35:                                               ; preds = %2
  %36 = load ptr, ptr %4, align 8, !tbaa !3
  %37 = getelementptr inbounds nuw %"struct.url::Parsed", ptr %36, i32 0, i32 8
  %38 = load ptr, ptr %37, align 8, !tbaa !8
  call void @_ZN3url6Parsed16set_inner_parsedERKS0_(ptr noundef nonnull align 8 dereferenceable(72) %5, ptr noundef nonnull align 8 dereferenceable(72) %38)
  br label %39

39:                                               ; preds = %35, %2
  ret void
}